; Function Attrs: mustprogress nofree norecurse nounwind willreturn memory(argmem: readwrite) uwtable
define internal noundef ptr @_ZL18connector_arg_copyPv(ptr noundef returned %0) #20 personality ptr @__gxx_personality_v0 {
  %2 = icmp eq ptr %0, null
  br i1 %2, label %5, label %_ZN9grpc_core13RefCountedPtrI23grpc_security_connectorED2Ev.exit

_ZN9grpc_core13RefCountedPtrI23grpc_security_connectorED2Ev.exit: ; preds = %1
  %3 = getelementptr inbounds nuw i8, ptr %0, i64 8
  %4 = atomicrmw add ptr %3, i64 1 monotonic, align 8, !noalias !52
  br label %5

5:                                                ; preds = %1, %_ZN9grpc_core13RefCountedPtrI23grpc_security_connectorED2Ev.exit
  ret ptr %0
}